target datalayout = "e-m:e-p270:32:32-p271:32:32-p272:64:64-i64:64-i128:128-f80:128-n8:16:32:64-S128"
target triple = "x86_64-pc-linux-gnu"

@hf_reload_overlay_specific = internal global i32 0, align 4
@hf_reload_joinreq = internal global i32 0, align 4
@hf_reload_joinreq_joining_peer_id = internal global i32 0, align 4
@ett_reload_joinreq = internal global i32 0, align 4

; Function Attrs: null_pointer_is_valid sspstrong uwtable
define internal i32 @dissect_opaque(ptr noundef %0, ptr noundef %1, ptr noundef %2, i32 noundef %3, i16 noundef zeroext %4, i16 noundef zeroext %5, i32 noundef %6) #0 {
  %8 = alloca ptr, align 8
  %9 = alloca ptr, align 8
  %10 = alloca ptr, align 8
  %11 = alloca i32, align 4
  %12 = alloca i16, align 2
  %13 = alloca i16, align 2
  %14 = alloca i32, align 4
  store ptr %0, ptr %8, align 8
  store ptr %1, ptr %9, align 8
  store ptr %2, ptr %10, align 8
  store i32 %3, ptr %11, align 4
  store i16 %4, ptr %12, align 2
  store i16 %5, ptr %13, align 2
  store i32 %6, ptr %14, align 4
  %15 = load ptr, ptr %8, align 8
  %16 = load ptr, ptr %9, align 8
  %17 = load ptr, ptr %10, align 8
  %18 = load i32, ptr %11, align 4
  %19 = load i16, ptr %12, align 2
  %20 = load i16, ptr %13, align 2
  %21 = load i32, ptr %14, align 4
  %22 = call i32 @dissect_opaque_string_or_data(ptr noundef %15, ptr noundef %16, ptr noundef %17, i32 noundef %18, i16 noundef zeroext %19, i16 noundef zeroext %20, i32 noundef %21, i1 noundef zeroext false)
  ret i32 %22
}

; Function Attrs: null_pointer_is_valid sspstrong uwtable
define internal i32 @dissect_joinreq(ptr noundef %0, ptr noundef %1, ptr noundef %2, i16 noundef zeroext %3, i16 noundef zeroext %4) #0 {
  %6 = alloca ptr, align 8
  %7 = alloca ptr, align 8
  %8 = alloca ptr, align 8
  %9 = alloca i16, align 2
  %10 = alloca i16, align 2
  %11 = alloca ptr, align 8
  %12 = alloca ptr, align 8
  %13 = alloca i16, align 2
  store ptr %0, ptr %6, align 8
  store ptr %1, ptr %7, align 8
  store ptr %2, ptr %8, align 8
  store i16 %3, ptr %9, align 2
  store i16 %4, ptr %10, align 2
  call void @llvm.lifetime.start.p0(i64 8, ptr %11) #8
  call void @llvm.lifetime.start.p0(i64 8, ptr %12) #8
  call void @llvm.lifetime.start.p0(i64 2, ptr %13) #8
  store i16 0, ptr %13, align 2
  %14 = load ptr, ptr %8, align 8
  %15 = load i32, ptr @hf_reload_joinreq, align 4
  %16 = load ptr, ptr %6, align 8
  %17 = load i16, ptr %9, align 2
  %18 = zext i16 %17 to i32
  %19 = load i16, ptr %10, align 2
  %20 = zext i16 %19 to i32
  %21 = call ptr @proto_tree_add_item(ptr noundef %14, i32 noundef %15, ptr noundef %16, i32 noundef %18, i32 noundef %20, i32 noundef 0)
  store ptr %21, ptr %11, align 8
  %22 = load ptr, ptr %11, align 8
  %23 = load i32, ptr @ett_reload_joinreq, align 4
  %24 = call ptr @proto_item_add_subtree(ptr noundef %22, i32 noundef %23)
  store ptr %24, ptr %12, align 8
  %25 = load i32, ptr @hf_reload_joinreq_joining_peer_id, align 4
  %26 = load ptr, ptr %6, align 8
  %27 = load ptr, ptr %7, align 8
  %28 = load ptr, ptr %12, align 8
  %29 = load i16, ptr %9, align 2
  %30 = load i16, ptr %10, align 2
  %31 = call i32 @dissect_nodeid(i32 noundef %25, ptr noundef %26, ptr noundef %27, ptr noundef %28, i16 noundef zeroext %29, i16 noundef zeroext %30)
  %32 = load i16, ptr %13, align 2
  %33 = zext i16 %32 to i32
  %34 = add i32 %33, %31
  %35 = trunc i32 %34 to i16
  store i16 %35, ptr %13, align 2
  %36 = load ptr, ptr %6, align 8
  %37 = load ptr, ptr %7, align 8
  %38 = load ptr, ptr %12, align 8
  %39 = load i32, ptr @hf_reload_overlay_specific, align 4
  %40 = load i16, ptr %9, align 2
  %41 = zext i16 %40 to i32
  %42 = load i16, ptr %13, align 2
  %43 = zext i16 %42 to i32
  %44 = add i32 %41, %43
  %45 = trunc i32 %44 to i16
  %46 = load i16, ptr %10, align 2
  %47 = zext i16 %46 to i32
  %48 = load i16, ptr %13, align 2
  %49 = zext i16 %48 to i32
  %50 = sub i32 %47, %49
  %51 = call i32 @dissect_opaque(ptr noundef %36, ptr noundef %37, ptr noundef %38, i32 noundef %39, i16 noundef zeroext %45, i16 noundef zeroext 2, i32 noundef %50)
  %52 = load i16, ptr %13, align 2
  %53 = zext i16 %52 to i32
  %54 = add i32 %53, %51
  %55 = trunc i32 %54 to i16
  store i16 %55, ptr %13, align 2
  %56 = load i16, ptr %13, align 2
  %57 = zext i16 %56 to i32
  call void @llvm.lifetime.end.p0(i64 2, ptr %13) #8
  call void @llvm.lifetime.end.p0(i64 8, ptr %12) #8
  call void @llvm.lifetime.end.p0(i64 8, ptr %11) #8
  ret i32 %57
}